; Function Attrs: mustprogress nounwind uwtable
define void @_ZN3zmq12wss_engine_tD2Ev(ptr noundef nonnull align 8 dereferenceable(25720) initializes((0, 8), (16, 24)) %0) unnamed_addr #5 align 2 personality ptr @__gxx_personality_v0 {
  store ptr getelementptr inbounds nuw inrange(-16, 176) (i8, ptr @_ZTVN3zmq12wss_engine_tE, i64 16), ptr %0, align 8, !tbaa !3
  %2 = getelementptr inbounds nuw i8, ptr %0, i64 16
  store ptr getelementptr inbounds nuw inrange(-16, 72) (i8, ptr @_ZTVN3zmq12wss_engine_tE, i64 208), ptr %2, align 8, !tbaa !3
  %3 = getelementptr inbounds nuw i8, ptr %0, i64 25712
  %4 = load ptr, ptr %3, align 8, !tbaa !82
  invoke void @gnutls_deinit(ptr noundef %4)
          to label %5 unwind label %10

5:                                                ; preds = %1
  %6 = getelementptr inbounds nuw i8, ptr %0, i64 25704
  %7 = load ptr, ptr %6, align 8, !tbaa !69
  %.not = icmp eq ptr %7, null
  br i1 %.not, label %9, label %8

8:                                                ; preds = %5
  invoke void @gnutls_certificate_free_credentials(ptr noundef nonnull %7)
          to label %9 unwind label %10

9:                                                ; preds = %8, %5
  tail call void @_ZN3zmq11ws_engine_tD2Ev(ptr noundef nonnull align 8 dereferenceable(25696) %0) #13
  ret void

10:                                               ; preds = %8, %1
  %11 = landingpad { ptr, i32 }
          catch ptr null
  %12 = extractvalue { ptr, i32 } %11, 0
  tail call void @__clang_call_terminate(ptr %12) #14
  unreachable
}